target datalayout = "e-m:e-p270:32:32-p271:32:32-p272:64:64-i64:64-i128:128-f80:128-n8:16:32:64-S128"
target triple = "x86_64-pc-linux-gnu"

%"class.igl::opengl::glfw::imgui::ImGuiWidget" = type { ptr, %"class.std::__cxx11::basic_string", ptr, ptr }
%"class.std::__cxx11::basic_string" = type { %"struct.std::__cxx11::basic_string<char>::_Alloc_hider", i64, %union.anon }
%"struct.std::__cxx11::basic_string<char>::_Alloc_hider" = type { ptr }
%union.anon = type { i64, [8 x i8] }
%"class.igl::opengl::glfw::imgui::ImGuiMenu" = type { %"class.igl::opengl::glfw::imgui::ImGuiWidget", %"class.std::function", %"class.std::function", %"class.std::function" }
%"class.std::function" = type { %"class.std::_Function_base", ptr }
%"class.std::_Function_base" = type { %"union.std::_Any_data", ptr }
%"union.std::_Any_data" = type { %"union.std::_Nocopy_types" }
%"union.std::_Nocopy_types" = type { { i64, i64 } }

; Function Attrs: noinline noreturn nounwind uwtable
define linkonce_odr hidden void @__clang_call_terminate(ptr noundef %0) #9 comdat {
  %2 = call ptr @__cxa_begin_catch(ptr %0) #6
  call void @_ZSt9terminatev() #18
  unreachable
}

; Function Attrs: mustprogress nounwind uwtable
define linkonce_odr dso_local noundef zeroext i1 @_ZNKSt14_Function_base8_M_emptyEv(ptr noundef nonnull align 8 dereferenceable(24) %0) #1 comdat align 2 {
  %2 = alloca ptr, align 8
  store ptr %0, ptr %2, align 8, !tbaa !123
  %3 = load ptr, ptr %2, align 8
  %4 = getelementptr inbounds nuw %"class.std::_Function_base", ptr %3, i32 0, i32 1
  %5 = load ptr, ptr %4, align 8, !tbaa !125
  %6 = icmp ne ptr %5, null
  %7 = xor i1 %6, true
  ret i1 %7
}

; Function Attrs: mustprogress uwtable
define linkonce_odr dso_local void @_ZNKSt8functionIFvvEEclEv(ptr noundef nonnull align 8 dereferenceable(32) %0) #3 comdat align 2 {
  %2 = alloca ptr, align 8
  store ptr %0, ptr %2, align 8, !tbaa !30
  %3 = load ptr, ptr %2, align 8
  %4 = call noundef zeroext i1 @_ZNKSt14_Function_base8_M_emptyEv(ptr noundef nonnull align 8 dereferenceable(24) %3)
  br i1 %4, label %5, label %6

5:                                                ; preds = %1
  call void @_ZSt25__throw_bad_function_callv() #19
  unreachable

6:                                                ; preds = %1
  %7 = getelementptr inbounds nuw %"class.std::function", ptr %3, i32 0, i32 1
  %8 = load ptr, ptr %7, align 8, !tbaa !32
  %9 = getelementptr inbounds nuw %"class.std::_Function_base", ptr %3, i32 0, i32 0
  call void %8(ptr noundef nonnull align 8 dereferenceable(16) %9)
  ret void
}

; Function Attrs: mustprogress nounwind uwtable
define linkonce_odr dso_local noundef zeroext i1 @_ZNKSt8functionIFvvEEcvbEv(ptr noundef nonnull align 8 dereferenceable(32) %0) #1 comdat align 2 personality ptr @__gxx_personality_v0 {
  %2 = alloca ptr, align 8
  store ptr %0, ptr %2, align 8, !tbaa !30
  %3 = load ptr, ptr %2, align 8
  %4 = invoke noundef zeroext i1 @_ZNKSt14_Function_base8_M_emptyEv(ptr noundef nonnull align 8 dereferenceable(24) %3)
          to label %5 unwind label %7

5:                                                ; preds = %1
  %6 = xor i1 %4, true
  ret i1 %6

7:                                                ; preds = %1
  %8 = landingpad { ptr, i32 }
          catch ptr null
  %9 = extractvalue { ptr, i32 } %8, 0
  call void @__clang_call_terminate(ptr %9) #18
  unreachable
}

; Function Attrs: mustprogress uwtable
define dso_local void @_ZN3igl6opengl4glfw5imgui9ImGuiMenu4drawEv(ptr noundef nonnull align 8 dereferenceable(152) %0) unnamed_addr #3 align 2 {
  %2 = alloca ptr, align 8
  store ptr %0, ptr %2, align 8, !tbaa !15
  %3 = load ptr, ptr %2, align 8
  %4 = getelementptr inbounds nuw %"class.igl::opengl::glfw::imgui::ImGuiMenu", ptr %3, i32 0, i32 1
  %5 = call noundef zeroext i1 @_ZNKSt8functionIFvvEEcvbEv(ptr noundef nonnull align 8 dereferenceable(32) %4) #6
  br i1 %5, label %6, label %8

6:                                                ; preds = %1
  %7 = getelementptr inbounds nuw %"class.igl::opengl::glfw::imgui::ImGuiMenu", ptr %3, i32 0, i32 1
  call void @_ZNKSt8functionIFvvEEclEv(ptr noundef nonnull align 8 dereferenceable(32) %7)
  br label %12

8:                                                ; preds = %1
  %9 = load ptr, ptr %3, align 8, !tbaa !28
  %10 = getelementptr inbounds ptr, ptr %9, i64 11
  %11 = load ptr, ptr %10, align 8
  call void %11(ptr noundef nonnull align 8 dereferenceable(152) %3)
  br label %12

12:                                               ; preds = %8, %6
  %13 = getelementptr inbounds nuw %"class.igl::opengl::glfw::imgui::ImGuiMenu", ptr %3, i32 0, i32 3
  %14 = call noundef zeroext i1 @_ZNKSt8functionIFvvEEcvbEv(ptr noundef nonnull align 8 dereferenceable(32) %13) #6
  br i1 %14, label %15, label %17

15:                                               ; preds = %12
  %16 = getelementptr inbounds nuw %"class.igl::opengl::glfw::imgui::ImGuiMenu", ptr %3, i32 0, i32 3
  call void @_ZNKSt8functionIFvvEEclEv(ptr noundef nonnull align 8 dereferenceable(32) %16)
  br label %21

17:                                               ; preds = %12
  %18 = load ptr, ptr %3, align 8, !tbaa !28
  %19 = getelementptr inbounds ptr, ptr %18, i64 13
  %20 = load ptr, ptr %19, align 8
  call void %20(ptr noundef nonnull align 8 dereferenceable(152) %3)
  br label %21

21:                                               ; preds = %17, %15
  ret void
}