; Function Attrs: mustprogress uwtable
define dso_local void @_ZN3igl6opengl4glfw5imgui9ImGuiMenu4drawEv(ptr noundef nonnull align 8 dereferenceable(152) %0) unnamed_addr #2 align 2 personality ptr @__gxx_personality_v0 {
  %2 = getelementptr inbounds nuw i8, ptr %0, i64 72
  %3 = load ptr, ptr %2, align 8, !tbaa !16
  %.not.i.i.not = icmp eq ptr %3, null
  br i1 %.not.i.i.not, label %7, label %_ZNKSt8functionIFvvEEclEv.exit

_ZNKSt8functionIFvvEEclEv.exit:                   ; preds = %1
  %4 = getelementptr inbounds nuw i8, ptr %0, i64 56
  %5 = getelementptr inbounds nuw i8, ptr %0, i64 80
  %6 = load ptr, ptr %5, align 8, !tbaa !18
  tail call void %6(ptr noundef nonnull align 8 dereferenceable(32) %4)
  br label %11

7:                                                ; preds = %1
  %8 = load ptr, ptr %0, align 8, !tbaa !20
  %9 = getelementptr inbounds nuw i8, ptr %8, i64 88
  %10 = load ptr, ptr %9, align 8
  tail call void %10(ptr noundef nonnull align 8 dereferenceable(152) %0)
  br label %11

11:                                               ; preds = %7, %_ZNKSt8functionIFvvEEclEv.exit
  %12 = getelementptr inbounds nuw i8, ptr %0, i64 136
  %13 = load ptr, ptr %12, align 8, !tbaa !16
  %.not.i.i2.not = icmp eq ptr %13, null
  br i1 %.not.i.i2.not, label %17, label %_ZNKSt8functionIFvvEEclEv.exit4

_ZNKSt8functionIFvvEEclEv.exit4:                  ; preds = %11
  %14 = getelementptr inbounds nuw i8, ptr %0, i64 120
  %15 = getelementptr inbounds nuw i8, ptr %0, i64 144
  %16 = load ptr, ptr %15, align 8, !tbaa !18
  tail call void %16(ptr noundef nonnull align 8 dereferenceable(32) %14)
  br label %21

17:                                               ; preds = %11
  %18 = load ptr, ptr %0, align 8, !tbaa !20
  %19 = getelementptr inbounds nuw i8, ptr %18, i64 104
  %20 = load ptr, ptr %19, align 8
  tail call void %20(ptr noundef nonnull align 8 dereferenceable(152) %0)
  br label %21

21:                                               ; preds = %17, %_ZNKSt8functionIFvvEEclEv.exit4
  ret void
}